; Function Attrs: mustprogress uwtable
define hidden noundef zeroext i1 @_ZN4cvc58internal9ManagedIn12specialCasesERKNSt7__cxx1112basic_stringIcSt11char_traitsIcESaIcEEE(ptr noundef nonnull align 8 dereferenceable(64) %0, ptr noundef nonnull align 8 dereferenceable(32) %1) unnamed_addr #5 align 2 personality ptr @__gxx_personality_v0 {
  %3 = tail call noundef i32 @_ZNKSt7__cxx1112basic_stringIcSt11char_traitsIcESaIcEE7compareEPKc(ptr noundef nonnull align 8 dereferenceable(32) %1, ptr noundef nonnull @.str.6) #22
  %4 = icmp eq i32 %3, 0
  br i1 %4, label %8, label %5

5:                                                ; preds = %2
  %6 = tail call noundef i32 @_ZNKSt7__cxx1112basic_stringIcSt11char_traitsIcESaIcEE7compareEPKc(ptr noundef nonnull align 8 dereferenceable(32) %1, ptr noundef nonnull @.str.4) #22
  %7 = icmp eq i32 %6, 0
  br i1 %7, label %8, label %38

8:                                                ; preds = %5, %2
  %9 = getelementptr inbounds nuw i8, ptr %0, i64 8
  store ptr @_ZSt3cin, ptr %9, align 8, !tbaa !59
  %10 = getelementptr inbounds nuw i8, ptr %0, i64 16
  store ptr null, ptr %10, align 8, !tbaa !47
  %11 = getelementptr inbounds nuw i8, ptr %0, i64 24
  %12 = load ptr, ptr %11, align 8, !tbaa !54
  store ptr null, ptr %11, align 8, !tbaa !54
  %.not.i.i.i = icmp eq ptr %12, null
  br i1 %.not.i.i.i, label %_ZNSt12__shared_ptrISiLN9__gnu_cxx12_Lock_policyE2EE5resetEv.exit, label %13

13:                                               ; preds = %8
  %14 = getelementptr inbounds nuw i8, ptr %12, i64 8
  %15 = load atomic i64, ptr %14 acquire, align 8
  %16 = icmp eq i64 %15, 4294967297
  %17 = trunc i64 %15 to i32
  br i1 %16, label %18, label %26

18:                                               ; preds = %13
  store i32 0, ptr %14, align 8, !tbaa !55
  %19 = getelementptr inbounds nuw i8, ptr %12, i64 12
  store i32 0, ptr %19, align 4, !tbaa !57
  %20 = load ptr, ptr %12, align 8, !tbaa !21
  %21 = getelementptr inbounds nuw i8, ptr %20, i64 16
  %22 = load ptr, ptr %21, align 8
  tail call void %22(ptr noundef nonnull align 8 dereferenceable(16) %12) #22
  %23 = load ptr, ptr %12, align 8, !tbaa !21
  %24 = getelementptr inbounds nuw i8, ptr %23, i64 24
  %25 = load ptr, ptr %24, align 8
  tail call void %25(ptr noundef nonnull align 8 dereferenceable(16) %12) #22
  br label %_ZNSt12__shared_ptrISiLN9__gnu_cxx12_Lock_policyE2EE5resetEv.exit

26:                                               ; preds = %13
  %27 = load i8, ptr @__libc_single_threaded, align 1, !tbaa !12
  %.not.i.i.i.i = icmp eq i8 %27, 0
  br i1 %.not.i.i.i.i, label %30, label %28

28:                                               ; preds = %26
  %29 = add nsw i32 %17, -1
  store i32 %29, ptr %14, align 4, !tbaa !13
  br label %_ZN9__gnu_cxx27__exchange_and_add_dispatchEPii.exit.i.i.i.i

30:                                               ; preds = %26
  %31 = atomicrmw volatile add ptr %14, i32 -1 acq_rel, align 4
  br label %_ZN9__gnu_cxx27__exchange_and_add_dispatchEPii.exit.i.i.i.i

_ZN9__gnu_cxx27__exchange_and_add_dispatchEPii.exit.i.i.i.i: ; preds = %30, %28
  %.0.i.i.i.i.i = phi i32 [ %17, %28 ], [ %31, %30 ]
  %32 = icmp eq i32 %.0.i.i.i.i.i, 1
  br i1 %32, label %33, label %_ZNSt12__shared_ptrISiLN9__gnu_cxx12_Lock_policyE2EE5resetEv.exit, !prof !58

33:                                               ; preds = %_ZN9__gnu_cxx27__exchange_and_add_dispatchEPii.exit.i.i.i.i
  tail call void @_ZNSt16_Sp_counted_baseILN9__gnu_cxx12_Lock_policyE2EE24_M_release_last_use_coldEv(ptr noundef nonnull align 8 dereferenceable(16) %12) #22
  br label %_ZNSt12__shared_ptrISiLN9__gnu_cxx12_Lock_policyE2EE5resetEv.exit

_ZNSt12__shared_ptrISiLN9__gnu_cxx12_Lock_policyE2EE5resetEv.exit: ; preds = %8, %18, %_ZN9__gnu_cxx27__exchange_and_add_dispatchEPii.exit.i.i.i.i, %33
  %34 = getelementptr inbounds nuw i8, ptr %0, i64 32
  %35 = getelementptr inbounds nuw i8, ptr %0, i64 40
  %36 = load i64, ptr %35, align 8, !tbaa !9
  %37 = tail call noundef nonnull align 8 dereferenceable(32) ptr @_ZNSt7__cxx1112basic_stringIcSt11char_traitsIcESaIcEE10_M_replaceEmmPKcm(ptr noundef nonnull align 8 dereferenceable(32) %34, i64 noundef 0, i64 noundef %36, ptr noundef nonnull @.str.6, i64 noundef 5)
  br label %38

38:                                               ; preds = %5, %_ZNSt12__shared_ptrISiLN9__gnu_cxx12_Lock_policyE2EE5resetEv.exit
  %.0 = phi i1 [ true, %_ZNSt12__shared_ptrISiLN9__gnu_cxx12_Lock_policyE2EE5resetEv.exit ], [ false, %5 ]
  ret i1 %.0
}